; Function Attrs: mustprogress nounwind uwtable
define dso_local void @_ZNK4llvm6Comdat5printERNS_11raw_ostreamEb(ptr noundef nonnull align 8 dereferenceable(64) %0, ptr noundef nonnull align 8 dereferenceable(48) %1, i1 zeroext %2) local_unnamed_addr #1 align 2 {
  %4 = tail call { ptr, i64 } @_ZNK4llvm6Comdat7getNameEv(ptr noundef nonnull align 8 dereferenceable(64) %0) #25
  %5 = extractvalue { ptr, i64 } %4, 0
  %6 = extractvalue { ptr, i64 } %4, 1
  %7 = getelementptr inbounds nuw i8, ptr %1, i64 32
  %8 = load ptr, ptr %7, align 8
  %9 = getelementptr inbounds nuw i8, ptr %1, i64 24
  %10 = load ptr, ptr %9, align 8
  %.not.i6.i = icmp ult ptr %8, %10
  br i1 %.not.i6.i, label %13, label %11

11:                                               ; preds = %3
  %12 = tail call noundef nonnull align 8 dereferenceable(48) ptr @_ZN4llvm11raw_ostream5writeEh(ptr noundef nonnull align 8 dereferenceable(48) %1, i8 noundef zeroext 36) #25
  br label %_ZL13PrintLLVMNameRN4llvm11raw_ostreamENS_9StringRefE10PrefixType.exit

13:                                               ; preds = %3
  %14 = getelementptr inbounds i8, ptr %8, i64 1
  store ptr %14, ptr %7, align 8
  store i8 36, ptr %8, align 1
  br label %_ZL13PrintLLVMNameRN4llvm11raw_ostreamENS_9StringRefE10PrefixType.exit

_ZL13PrintLLVMNameRN4llvm11raw_ostreamENS_9StringRefE10PrefixType.exit: ; preds = %11, %13
  tail call void @_ZN4llvm26printLLVMNameWithoutPrefixERNS_11raw_ostreamENS_9StringRefE(ptr noundef nonnull align 8 dereferenceable(48) %1, ptr %5, i64 %6)
  %15 = load ptr, ptr %9, align 8
  %16 = load ptr, ptr %7, align 8
  %17 = ptrtoint ptr %15 to i64
  %18 = ptrtoint ptr %16 to i64
  %19 = sub i64 %17, %18
  %20 = icmp ult i64 %19, 10
  br i1 %20, label %21, label %23

21:                                               ; preds = %_ZL13PrintLLVMNameRN4llvm11raw_ostreamENS_9StringRefE10PrefixType.exit
  %22 = tail call noundef nonnull align 8 dereferenceable(48) ptr @_ZN4llvm11raw_ostream5writeEPKcm(ptr noundef nonnull align 8 dereferenceable(48) %1, ptr noundef nonnull @.str, i64 noundef 10) #25
  br label %_ZN4llvm11raw_ostreamlsEPKc.exit

23:                                               ; preds = %_ZL13PrintLLVMNameRN4llvm11raw_ostreamENS_9StringRefE10PrefixType.exit
  tail call void @llvm.memcpy.p0.p0.i64(ptr noundef nonnull align 1 dereferenceable(10) %16, ptr noundef nonnull align 1 dereferenceable(10) @.str, i64 10, i1 false)
  %24 = load ptr, ptr %7, align 8
  %25 = getelementptr inbounds i8, ptr %24, i64 10
  store ptr %25, ptr %7, align 8
  br label %_ZN4llvm11raw_ostreamlsEPKc.exit

_ZN4llvm11raw_ostreamlsEPKc.exit:                 ; preds = %21, %23
  %26 = getelementptr inbounds nuw i8, ptr %0, i64 8
  %27 = load i32, ptr %26, align 8
  switch i32 %27, label %_ZN4llvm11raw_ostreamlsEPKc.exit11 [
    i32 0, label %28
    i32 1, label %40
    i32 2, label %52
    i32 3, label %64
    i32 4, label %76
  ]

28:                                               ; preds = %_ZN4llvm11raw_ostreamlsEPKc.exit
  %29 = load ptr, ptr %9, align 8
  %30 = load ptr, ptr %7, align 8
  %31 = ptrtoint ptr %29 to i64
  %32 = ptrtoint ptr %30 to i64
  %33 = sub i64 %31, %32
  %34 = icmp ult i64 %33, 3
  br i1 %34, label %35, label %37

35:                                               ; preds = %28
  %36 = tail call noundef nonnull align 8 dereferenceable(48) ptr @_ZN4llvm11raw_ostream5writeEPKcm(ptr noundef nonnull align 8 dereferenceable(48) %1, ptr noundef nonnull @.str.1, i64 noundef 3) #25
  br label %_ZN4llvm11raw_ostreamlsEPKc.exit11

37:                                               ; preds = %28
  tail call void @llvm.memcpy.p0.p0.i64(ptr noundef nonnull align 1 dereferenceable(3) %30, ptr noundef nonnull align 1 dereferenceable(3) @.str.1, i64 3, i1 false)
  %38 = load ptr, ptr %7, align 8
  %39 = getelementptr inbounds i8, ptr %38, i64 3
  store ptr %39, ptr %7, align 8
  br label %_ZN4llvm11raw_ostreamlsEPKc.exit11

40:                                               ; preds = %_ZN4llvm11raw_ostreamlsEPKc.exit
  %41 = load ptr, ptr %9, align 8
  %42 = load ptr, ptr %7, align 8
  %43 = ptrtoint ptr %41 to i64
  %44 = ptrtoint ptr %42 to i64
  %45 = sub i64 %43, %44
  %46 = icmp ult i64 %45, 10
  br i1 %46, label %47, label %49

47:                                               ; preds = %40
  %48 = tail call noundef nonnull align 8 dereferenceable(48) ptr @_ZN4llvm11raw_ostream5writeEPKcm(ptr noundef nonnull align 8 dereferenceable(48) %1, ptr noundef nonnull @.str.2, i64 noundef 10) #25
  br label %_ZN4llvm11raw_ostreamlsEPKc.exit11

49:                                               ; preds = %40
  tail call void @llvm.memcpy.p0.p0.i64(ptr noundef nonnull align 1 dereferenceable(10) %42, ptr noundef nonnull align 1 dereferenceable(10) @.str.2, i64 10, i1 false)
  %50 = load ptr, ptr %7, align 8
  %51 = getelementptr inbounds i8, ptr %50, i64 10
  store ptr %51, ptr %7, align 8
  br label %_ZN4llvm11raw_ostreamlsEPKc.exit11

52:                                               ; preds = %_ZN4llvm11raw_ostreamlsEPKc.exit
  %53 = load ptr, ptr %9, align 8
  %54 = load ptr, ptr %7, align 8
  %55 = ptrtoint ptr %53 to i64
  %56 = ptrtoint ptr %54 to i64
  %57 = sub i64 %55, %56
  %58 = icmp ult i64 %57, 7
  br i1 %58, label %59, label %61

59:                                               ; preds = %52
  %60 = tail call noundef nonnull align 8 dereferenceable(48) ptr @_ZN4llvm11raw_ostream5writeEPKcm(ptr noundef nonnull align 8 dereferenceable(48) %1, ptr noundef nonnull @.str.3, i64 noundef 7) #25
  br label %_ZN4llvm11raw_ostreamlsEPKc.exit11

61:                                               ; preds = %52
  tail call void @llvm.memcpy.p0.p0.i64(ptr noundef nonnull align 1 dereferenceable(7) %54, ptr noundef nonnull align 1 dereferenceable(7) @.str.3, i64 7, i1 false)
  %62 = load ptr, ptr %7, align 8
  %63 = getelementptr inbounds i8, ptr %62, i64 7
  store ptr %63, ptr %7, align 8
  br label %_ZN4llvm11raw_ostreamlsEPKc.exit11

64:                                               ; preds = %_ZN4llvm11raw_ostreamlsEPKc.exit
  %65 = load ptr, ptr %9, align 8
  %66 = load ptr, ptr %7, align 8
  %67 = ptrtoint ptr %65 to i64
  %68 = ptrtoint ptr %66 to i64
  %69 = sub i64 %67, %68
  %70 = icmp ult i64 %69, 13
  br i1 %70, label %71, label %73

71:                                               ; preds = %64
  %72 = tail call noundef nonnull align 8 dereferenceable(48) ptr @_ZN4llvm11raw_ostream5writeEPKcm(ptr noundef nonnull align 8 dereferenceable(48) %1, ptr noundef nonnull @.str.4, i64 noundef 13) #25
  br label %_ZN4llvm11raw_ostreamlsEPKc.exit11

73:                                               ; preds = %64
  tail call void @llvm.memcpy.p0.p0.i64(ptr noundef nonnull align 1 dereferenceable(13) %66, ptr noundef nonnull align 1 dereferenceable(13) @.str.4, i64 13, i1 false)
  %74 = load ptr, ptr %7, align 8
  %75 = getelementptr inbounds i8, ptr %74, i64 13
  store ptr %75, ptr %7, align 8
  br label %_ZN4llvm11raw_ostreamlsEPKc.exit11

76:                                               ; preds = %_ZN4llvm11raw_ostreamlsEPKc.exit
  %77 = load ptr, ptr %9, align 8
  %78 = load ptr, ptr %7, align 8
  %79 = ptrtoint ptr %77 to i64
  %80 = ptrtoint ptr %78 to i64
  %81 = sub i64 %79, %80
  %82 = icmp ult i64 %81, 8
  br i1 %82, label %83, label %85

83:                                               ; preds = %76
  %84 = tail call noundef nonnull align 8 dereferenceable(48) ptr @_ZN4llvm11raw_ostream5writeEPKcm(ptr noundef nonnull align 8 dereferenceable(48) %1, ptr noundef nonnull @.str.5, i64 noundef 8) #25
  br label %_ZN4llvm11raw_ostreamlsEPKc.exit11

85:                                               ; preds = %76
  store i64 7312272889333244275, ptr %78, align 1
  %86 = load ptr, ptr %7, align 8
  %87 = getelementptr inbounds i8, ptr %86, i64 8
  store ptr %87, ptr %7, align 8
  br label %_ZN4llvm11raw_ostreamlsEPKc.exit11

_ZN4llvm11raw_ostreamlsEPKc.exit11:               ; preds = %85, %83, %73, %71, %61, %59, %49, %47, %37, %35, %_ZN4llvm11raw_ostreamlsEPKc.exit
  %88 = load ptr, ptr %7, align 8
  %89 = load ptr, ptr %9, align 8
  %.not.i = icmp ult ptr %88, %89
  br i1 %.not.i, label %92, label %90

90:                                               ; preds = %_ZN4llvm11raw_ostreamlsEPKc.exit11
  %91 = tail call noundef nonnull align 8 dereferenceable(48) ptr @_ZN4llvm11raw_ostream5writeEh(ptr noundef nonnull align 8 dereferenceable(48) %1, i8 noundef zeroext 10) #25
  br label %_ZN4llvm11raw_ostreamlsEc.exit

92:                                               ; preds = %_ZN4llvm11raw_ostreamlsEPKc.exit11
  %93 = getelementptr inbounds i8, ptr %88, i64 1
  store ptr %93, ptr %7, align 8
  store i8 10, ptr %88, align 1
  br label %_ZN4llvm11raw_ostreamlsEc.exit

_ZN4llvm11raw_ostreamlsEc.exit:                   ; preds = %90, %92
  ret void
}